target datalayout = "e-m:e-p270:32:32-p271:32:32-p272:64:64-i64:64-i128:128-f80:128-n8:16:32:64-S128"
target triple = "x86_64-pc-linux-gnu"

%struct.lxb_html_tokenizer = type { ptr, ptr, ptr, ptr, ptr, ptr, ptr, ptr, ptr, ptr, ptr, ptr, ptr, ptr, ptr, i64, ptr, ptr, ptr, ptr, ptr, i64, i64, ptr, ptr, i64, i64, i32, i32, i8, i32, i32, i8, ptr, i64 }

@.str = private unnamed_addr constant [2 x i8] c"/\00", align 1

; Function Attrs: nounwind uwtable
define internal i32 @lxb_html_tokenizer_temp_realloc(ptr noundef %0, i64 noundef %1) #0 {
  %3 = alloca i32, align 4
  %4 = alloca ptr, align 8
  %5 = alloca i64, align 8
  %6 = alloca i64, align 8
  %7 = alloca i64, align 8
  store ptr %0, ptr %4, align 8
  store i64 %1, ptr %5, align 8
  %8 = load ptr, ptr %4, align 8
  %9 = getelementptr inbounds %struct.lxb_html_tokenizer, ptr %8, i32 0, i32 17
  %10 = load ptr, ptr %9, align 8
  %11 = load ptr, ptr %4, align 8
  %12 = getelementptr inbounds %struct.lxb_html_tokenizer, ptr %11, i32 0, i32 16
  %13 = load ptr, ptr %12, align 8
  %14 = ptrtoint ptr %10 to i64
  %15 = ptrtoint ptr %13 to i64
  %16 = sub i64 %14, %15
  store i64 %16, ptr %6, align 8
  %17 = load ptr, ptr %4, align 8
  %18 = getelementptr inbounds %struct.lxb_html_tokenizer, ptr %17, i32 0, i32 18
  %19 = load ptr, ptr %18, align 8
  %20 = load ptr, ptr %4, align 8
  %21 = getelementptr inbounds %struct.lxb_html_tokenizer, ptr %20, i32 0, i32 16
  %22 = load ptr, ptr %21, align 8
  %23 = ptrtoint ptr %19 to i64
  %24 = ptrtoint ptr %22 to i64
  %25 = sub i64 %23, %24
  %26 = load i64, ptr %5, align 8
  %27 = add i64 %25, %26
  %28 = add i64 %27, 4096
  store i64 %28, ptr %7, align 8
  %29 = load ptr, ptr %4, align 8
  %30 = getelementptr inbounds %struct.lxb_html_tokenizer, ptr %29, i32 0, i32 16
  %31 = load ptr, ptr %30, align 8
  %32 = load i64, ptr %7, align 8
  %33 = call ptr @lexbor_realloc(ptr noundef %31, i64 noundef %32)
  %34 = load ptr, ptr %4, align 8
  %35 = getelementptr inbounds %struct.lxb_html_tokenizer, ptr %34, i32 0, i32 16
  store ptr %33, ptr %35, align 8
  %36 = load ptr, ptr %4, align 8
  %37 = getelementptr inbounds %struct.lxb_html_tokenizer, ptr %36, i32 0, i32 16
  %38 = load ptr, ptr %37, align 8
  %39 = icmp eq ptr %38, null
  br i1 %39, label %40, label %46

40:                                               ; preds = %2
  %41 = load ptr, ptr %4, align 8
  %42 = getelementptr inbounds %struct.lxb_html_tokenizer, ptr %41, i32 0, i32 31
  store i32 2, ptr %42, align 8
  %43 = load ptr, ptr %4, align 8
  %44 = getelementptr inbounds %struct.lxb_html_tokenizer, ptr %43, i32 0, i32 31
  %45 = load i32, ptr %44, align 8
  store i32 %45, ptr %3, align 4
  br label %61

46:                                               ; preds = %2
  %47 = load ptr, ptr %4, align 8
  %48 = getelementptr inbounds %struct.lxb_html_tokenizer, ptr %47, i32 0, i32 16
  %49 = load ptr, ptr %48, align 8
  %50 = load i64, ptr %6, align 8
  %51 = getelementptr inbounds i8, ptr %49, i64 %50
  %52 = load ptr, ptr %4, align 8
  %53 = getelementptr inbounds %struct.lxb_html_tokenizer, ptr %52, i32 0, i32 17
  store ptr %51, ptr %53, align 8
  %54 = load ptr, ptr %4, align 8
  %55 = getelementptr inbounds %struct.lxb_html_tokenizer, ptr %54, i32 0, i32 16
  %56 = load ptr, ptr %55, align 8
  %57 = load i64, ptr %7, align 8
  %58 = getelementptr inbounds i8, ptr %56, i64 %57
  %59 = load ptr, ptr %4, align 8
  %60 = getelementptr inbounds %struct.lxb_html_tokenizer, ptr %59, i32 0, i32 18
  store ptr %58, ptr %60, align 8
  store i32 0, ptr %3, align 4
  br label %61

61:                                               ; preds = %46, %40
  %62 = load i32, ptr %3, align 4
  ret i32 %62
}

; Function Attrs: nounwind uwtable
define internal i32 @lxb_html_tokenizer_temp_append(ptr noundef %0, ptr noundef %1, i64 noundef %2) #0 {
  %4 = alloca i32, align 4
  %5 = alloca ptr, align 8
  %6 = alloca ptr, align 8
  %7 = alloca i64, align 8
  store ptr %0, ptr %5, align 8
  store ptr %1, ptr %6, align 8
  store i64 %2, ptr %7, align 8
  %8 = load ptr, ptr %5, align 8
  %9 = getelementptr inbounds %struct.lxb_html_tokenizer, ptr %8, i32 0, i32 17
  %10 = load ptr, ptr %9, align 8
  %11 = load i64, ptr %7, align 8
  %12 = getelementptr inbounds i8, ptr %10, i64 %11
  %13 = load ptr, ptr %5, align 8
  %14 = getelementptr inbounds %struct.lxb_html_tokenizer, ptr %13, i32 0, i32 18
  %15 = load ptr, ptr %14, align 8
  %16 = icmp ugt ptr %12, %15
  br i1 %16, label %17, label %27

17:                                               ; preds = %3
  %18 = load ptr, ptr %5, align 8
  %19 = load i64, ptr %7, align 8
  %20 = call i32 @lxb_html_tokenizer_temp_realloc(ptr noundef %18, i64 noundef %19)
  %21 = icmp ne i32 %20, 0
  br i1 %21, label %22, label %26

22:                                               ; preds = %17
  %23 = load ptr, ptr %5, align 8
  %24 = getelementptr inbounds %struct.lxb_html_tokenizer, ptr %23, i32 0, i32 31
  %25 = load i32, ptr %24, align 8
  store i32 %25, ptr %4, align 4
  br label %37

26:                                               ; preds = %17
  br label %27

27:                                               ; preds = %26, %3
  %28 = load ptr, ptr %5, align 8
  %29 = getelementptr inbounds %struct.lxb_html_tokenizer, ptr %28, i32 0, i32 17
  %30 = load ptr, ptr %29, align 8
  %31 = load ptr, ptr %6, align 8
  %32 = load i64, ptr %7, align 8
  call void @llvm.memcpy.p0.p0.i64(ptr align 1 %30, ptr align 1 %31, i64 %32, i1 false)
  %33 = load i64, ptr %7, align 8
  %34 = getelementptr inbounds i8, ptr %30, i64 %33
  %35 = load ptr, ptr %5, align 8
  %36 = getelementptr inbounds %struct.lxb_html_tokenizer, ptr %35, i32 0, i32 17
  store ptr %34, ptr %36, align 8
  store i32 0, ptr %4, align 4
  br label %37

37:                                               ; preds = %27, %22
  %38 = load i32, ptr %4, align 4
  ret i32 %38
}

; Function Attrs: nounwind uwtable
define internal ptr @lxb_html_tokenizer_state_rawtext_end_tag_open(ptr noundef %0, ptr noundef %1, ptr noundef %2) #0 {
  %4 = alloca ptr, align 8
  %5 = alloca ptr, align 8
  %6 = alloca ptr, align 8
  %7 = alloca ptr, align 8
  store ptr %0, ptr %5, align 8
  store ptr %1, ptr %6, align 8
  store ptr %2, ptr %7, align 8
  %8 = load ptr, ptr %6, align 8
  %9 = load i8, ptr %8, align 1
  %10 = zext i8 %9 to i64
  %11 = getelementptr inbounds [256 x i64], ptr @lexbor_str_res_alpha_character, i64 0, i64 %10
  %12 = load i64, ptr %11, align 8
  %13 = icmp ne i64 %12, 255
  br i1 %13, label %14, label %32

14:                                               ; preds = %3
  %15 = load ptr, ptr %6, align 8
  %16 = load ptr, ptr %5, align 8
  %17 = getelementptr inbounds %struct.lxb_html_tokenizer, ptr %16, i32 0, i32 14
  store ptr %15, ptr %17, align 8
  %18 = load ptr, ptr %5, align 8
  %19 = getelementptr inbounds %struct.lxb_html_tokenizer, ptr %18, i32 0, i32 17
  %20 = load ptr, ptr %19, align 8
  %21 = getelementptr inbounds i8, ptr %20, i64 -1
  %22 = load ptr, ptr %5, align 8
  %23 = getelementptr inbounds %struct.lxb_html_tokenizer, ptr %22, i32 0, i32 16
  %24 = load ptr, ptr %23, align 8
  %25 = ptrtoint ptr %21 to i64
  %26 = ptrtoint ptr %24 to i64
  %27 = sub i64 %25, %26
  %28 = load ptr, ptr %5, align 8
  %29 = getelementptr inbounds %struct.lxb_html_tokenizer, ptr %28, i32 0, i32 25
  store i64 %27, ptr %29, align 8
  %30 = load ptr, ptr %5, align 8
  %31 = getelementptr inbounds %struct.lxb_html_tokenizer, ptr %30, i32 0, i32 0
  store ptr @lxb_html_tokenizer_state_rawtext_end_tag_name, ptr %31, align 8
  br label %35

32:                                               ; preds = %3
  %33 = load ptr, ptr %5, align 8
  %34 = getelementptr inbounds %struct.lxb_html_tokenizer, ptr %33, i32 0, i32 0
  store ptr @lxb_html_tokenizer_state_rawtext, ptr %34, align 8
  br label %35

35:                                               ; preds = %32, %14
  br label %36

36:                                               ; preds = %35
  %37 = load ptr, ptr %5, align 8
  %38 = call i32 @lxb_html_tokenizer_temp_append(ptr noundef %37, ptr noundef @.str, i64 noundef 1)
  %39 = icmp ne i32 %38, 0
  br i1 %39, label %40, label %42

40:                                               ; preds = %36
  %41 = load ptr, ptr %7, align 8
  store ptr %41, ptr %4, align 8
  br label %45

42:                                               ; preds = %36
  br label %43

43:                                               ; preds = %42
  %44 = load ptr, ptr %6, align 8
  store ptr %44, ptr %4, align 8
  br label %45

45:                                               ; preds = %43, %40
  %46 = load ptr, ptr %4, align 8
  ret ptr %46
}